target datalayout = "e-m:e-p270:32:32-p271:32:32-p272:64:64-i64:64-i128:128-f80:128-n8:16:32:64-S128"
target triple = "x86_64-pc-linux-gnu"

%struct.Vec_Int_t_ = type { i32, i32, ptr }
%struct.Zyx_Man_t_ = type { ptr, ptr, i32, i32, i32, i32, i32, ptr, ptr, ptr, ptr, ptr, ptr, [2 x i32], [32 x [32 x i32]], [2 x [64 x i32]], [2 x i32], [1024 x i32], ptr, i64 }
%struct.Bmc_EsPar_t_ = type { i32, i32, i32, i32, i32, i32, i32, i32, i32, i32, i32, i32, i32, i32, i32, i32, i32, ptr }

; Function Attrs: nounwind uwtable
define internal void @Vec_IntGrow(ptr noundef %0, i32 noundef %1) #0 {
  %3 = alloca ptr, align 8
  %4 = alloca i32, align 4
  store ptr %0, ptr %3, align 8
  store i32 %1, ptr %4, align 4
  %5 = load ptr, ptr %3, align 8
  %6 = getelementptr inbounds %struct.Vec_Int_t_, ptr %5, i32 0, i32 0
  %7 = load i32, ptr %6, align 8
  %8 = load i32, ptr %4, align 4
  %9 = icmp sge i32 %7, %8
  br i1 %9, label %10, label %11

10:                                               ; preds = %2
  br label %36

11:                                               ; preds = %2
  %12 = load ptr, ptr %3, align 8
  %13 = getelementptr inbounds %struct.Vec_Int_t_, ptr %12, i32 0, i32 2
  %14 = load ptr, ptr %13, align 8
  %15 = icmp ne ptr %14, null
  br i1 %15, label %16, label %24

16:                                               ; preds = %11
  %17 = load ptr, ptr %3, align 8
  %18 = getelementptr inbounds %struct.Vec_Int_t_, ptr %17, i32 0, i32 2
  %19 = load ptr, ptr %18, align 8
  %20 = load i32, ptr %4, align 4
  %21 = sext i32 %20 to i64
  %22 = mul i64 4, %21
  %23 = call ptr @realloc(ptr noundef %19, i64 noundef %22) #14
  br label %29

24:                                               ; preds = %11
  %25 = load i32, ptr %4, align 4
  %26 = sext i32 %25 to i64
  %27 = mul i64 4, %26
  %28 = call noalias ptr @malloc(i64 noundef %27) #12
  br label %29

29:                                               ; preds = %24, %16
  %30 = phi ptr [ %23, %16 ], [ %28, %24 ]
  %31 = load ptr, ptr %3, align 8
  %32 = getelementptr inbounds %struct.Vec_Int_t_, ptr %31, i32 0, i32 2
  store ptr %30, ptr %32, align 8
  %33 = load i32, ptr %4, align 4
  %34 = load ptr, ptr %3, align 8
  %35 = getelementptr inbounds %struct.Vec_Int_t_, ptr %34, i32 0, i32 0
  store i32 %33, ptr %35, align 8
  br label %36

36:                                               ; preds = %29, %10
  ret void
}

; Function Attrs: nounwind uwtable
define internal void @Vec_IntFree(ptr noundef %0) #0 {
  %2 = alloca ptr, align 8
  store ptr %0, ptr %2, align 8
  %3 = load ptr, ptr %2, align 8
  %4 = getelementptr inbounds %struct.Vec_Int_t_, ptr %3, i32 0, i32 2
  %5 = load ptr, ptr %4, align 8
  %6 = icmp ne ptr %5, null
  br i1 %6, label %7, label %13

7:                                                ; preds = %1
  %8 = load ptr, ptr %2, align 8
  %9 = getelementptr inbounds %struct.Vec_Int_t_, ptr %8, i32 0, i32 2
  %10 = load ptr, ptr %9, align 8
  call void @free(ptr noundef %10) #11
  %11 = load ptr, ptr %2, align 8
  %12 = getelementptr inbounds %struct.Vec_Int_t_, ptr %11, i32 0, i32 2
  store ptr null, ptr %12, align 8
  br label %14

13:                                               ; preds = %1
  br label %14

14:                                               ; preds = %13, %7
  %15 = load ptr, ptr %2, align 8
  %16 = icmp ne ptr %15, null
  br i1 %16, label %17, label %19

17:                                               ; preds = %14
  %18 = load ptr, ptr %2, align 8
  call void @free(ptr noundef %18) #11
  store ptr null, ptr %2, align 8
  br label %20

19:                                               ; preds = %14
  br label %20

20:                                               ; preds = %19, %17
  ret void
}

; Function Attrs: nounwind uwtable
define internal i32 @Vec_IntSize(ptr noundef %0) #0 {
  %2 = alloca ptr, align 8
  store ptr %0, ptr %2, align 8
  %3 = load ptr, ptr %2, align 8
  %4 = getelementptr inbounds %struct.Vec_Int_t_, ptr %3, i32 0, i32 1
  %5 = load i32, ptr %4, align 4
  ret i32 %5
}

; Function Attrs: nounwind uwtable
define internal ptr @Vec_IntArray(ptr noundef %0) #0 {
  %2 = alloca ptr, align 8
  store ptr %0, ptr %2, align 8
  %3 = load ptr, ptr %2, align 8
  %4 = getelementptr inbounds %struct.Vec_Int_t_, ptr %3, i32 0, i32 2
  %5 = load ptr, ptr %4, align 8
  ret ptr %5
}

; Function Attrs: nounwind uwtable
define internal void @Vec_IntPush(ptr noundef %0, i32 noundef %1) #0 {
  %3 = alloca ptr, align 8
  %4 = alloca i32, align 4
  store ptr %0, ptr %3, align 8
  store i32 %1, ptr %4, align 4
  %5 = load ptr, ptr %3, align 8
  %6 = getelementptr inbounds %struct.Vec_Int_t_, ptr %5, i32 0, i32 1
  %7 = load i32, ptr %6, align 4
  %8 = load ptr, ptr %3, align 8
  %9 = getelementptr inbounds %struct.Vec_Int_t_, ptr %8, i32 0, i32 0
  %10 = load i32, ptr %9, align 8
  %11 = icmp eq i32 %7, %10
  br i1 %11, label %12, label %26

12:                                               ; preds = %2
  %13 = load ptr, ptr %3, align 8
  %14 = getelementptr inbounds %struct.Vec_Int_t_, ptr %13, i32 0, i32 0
  %15 = load i32, ptr %14, align 8
  %16 = icmp slt i32 %15, 16
  br i1 %16, label %17, label %19

17:                                               ; preds = %12
  %18 = load ptr, ptr %3, align 8
  call void @Vec_IntGrow(ptr noundef %18, i32 noundef 16)
  br label %25

19:                                               ; preds = %12
  %20 = load ptr, ptr %3, align 8
  %21 = load ptr, ptr %3, align 8
  %22 = getelementptr inbounds %struct.Vec_Int_t_, ptr %21, i32 0, i32 0
  %23 = load i32, ptr %22, align 8
  %24 = mul nsw i32 2, %23
  call void @Vec_IntGrow(ptr noundef %20, i32 noundef %24)
  br label %25

25:                                               ; preds = %19, %17
  br label %26

26:                                               ; preds = %25, %2
  %27 = load i32, ptr %4, align 4
  %28 = load ptr, ptr %3, align 8
  %29 = getelementptr inbounds %struct.Vec_Int_t_, ptr %28, i32 0, i32 2
  %30 = load ptr, ptr %29, align 8
  %31 = load ptr, ptr %3, align 8
  %32 = getelementptr inbounds %struct.Vec_Int_t_, ptr %31, i32 0, i32 1
  %33 = load i32, ptr %32, align 4
  %34 = add nsw i32 %33, 1
  store i32 %34, ptr %32, align 4
  %35 = sext i32 %33 to i64
  %36 = getelementptr inbounds i32, ptr %30, i64 %35
  store i32 %27, ptr %36, align 4
  ret void
}

; Function Attrs: nounwind uwtable
define internal i32 @Abc_Var2Lit(i32 noundef %0, i32 noundef %1) #0 {
  %3 = alloca i32, align 4
  %4 = alloca i32, align 4
  store i32 %0, ptr %3, align 4
  store i32 %1, ptr %4, align 4
  %5 = load i32, ptr %3, align 4
  %6 = load i32, ptr %3, align 4
  %7 = add nsw i32 %5, %6
  %8 = load i32, ptr %4, align 4
  %9 = add nsw i32 %7, %8
  ret i32 %9
}

; Function Attrs: nounwind uwtable
define internal i32 @Zyx_TopoVar(ptr noundef %0, i32 noundef %1, i32 noundef %2) #0 {
  %4 = alloca ptr, align 8
  %5 = alloca i32, align 4
  %6 = alloca i32, align 4
  store ptr %0, ptr %4, align 8
  store i32 %1, ptr %5, align 4
  store i32 %2, ptr %6, align 4
  %7 = load ptr, ptr %4, align 8
  %8 = getelementptr inbounds %struct.Zyx_Man_t_, ptr %7, i32 0, i32 5
  %9 = load i32, ptr %8, align 4
  %10 = load ptr, ptr %4, align 8
  %11 = getelementptr inbounds %struct.Zyx_Man_t_, ptr %10, i32 0, i32 2
  %12 = load i32, ptr %11, align 8
  %13 = load i32, ptr %5, align 4
  %14 = load ptr, ptr %4, align 8
  %15 = getelementptr inbounds %struct.Zyx_Man_t_, ptr %14, i32 0, i32 0
  %16 = load ptr, ptr %15, align 8
  %17 = getelementptr inbounds %struct.Bmc_EsPar_t_, ptr %16, i32 0, i32 0
  %18 = load i32, ptr %17, align 8
  %19 = sub nsw i32 %13, %18
  %20 = mul nsw i32 %12, %19
  %21 = add nsw i32 %9, %20
  %22 = load i32, ptr %6, align 4
  %23 = add nsw i32 %21, %22
  ret i32 %23
}

; Function Attrs: nounwind uwtable
define i32 @Zyx_ManCollectFanins(ptr noundef %0, i32 noundef %1) #0 {
  %3 = alloca ptr, align 8
  %4 = alloca i32, align 4
  %5 = alloca i32, align 4
  %6 = alloca i32, align 4
  store ptr %0, ptr %3, align 8
  store i32 %1, ptr %4, align 4
  %7 = load ptr, ptr %3, align 8
  %8 = getelementptr inbounds %struct.Zyx_Man_t_, ptr %7, i32 0, i32 16
  %9 = getelementptr inbounds [2 x i32], ptr %8, i64 0, i64 1
  store i32 0, ptr %9, align 4
  %10 = load ptr, ptr %3, align 8
  %11 = getelementptr inbounds %struct.Zyx_Man_t_, ptr %10, i32 0, i32 16
  %12 = getelementptr inbounds [2 x i32], ptr %11, i64 0, i64 0
  store i32 0, ptr %12, align 8
  store i32 0, ptr %5, align 4
  br label %13

13:                                               ; preds = %58, %2
  %14 = load i32, ptr %5, align 4
  %15 = load i32, ptr %4, align 4
  %16 = icmp slt i32 %14, %15
  br i1 %16, label %17, label %61

17:                                               ; preds = %13
  %18 = load ptr, ptr %3, align 8
  %19 = getelementptr inbounds %struct.Zyx_Man_t_, ptr %18, i32 0, i32 18
  %20 = load ptr, ptr %19, align 8
  %21 = load ptr, ptr %3, align 8
  %22 = load i32, ptr %4, align 4
  %23 = load i32, ptr %5, align 4
  %24 = call i32 @Zyx_TopoVar(ptr noundef %21, i32 noundef %22, i32 noundef %23)
  %25 = call i32 @bmcg_sat_solver_read_cex_varvalue(ptr noundef %20, i32 noundef %24)
  store i32 %25, ptr %6, align 4
  %26 = load i32, ptr %5, align 4
  %27 = load ptr, ptr %3, align 8
  %28 = getelementptr inbounds %struct.Zyx_Man_t_, ptr %27, i32 0, i32 14
  %29 = load i32, ptr %4, align 4
  %30 = sext i32 %29 to i64
  %31 = getelementptr inbounds [32 x [32 x i32]], ptr %28, i64 0, i64 %30
  %32 = load ptr, ptr %3, align 8
  %33 = getelementptr inbounds %struct.Zyx_Man_t_, ptr %32, i32 0, i32 16
  %34 = getelementptr inbounds [2 x i32], ptr %33, i64 0, i64 1
  %35 = load i32, ptr %34, align 4
  %36 = sext i32 %35 to i64
  %37 = getelementptr inbounds [32 x i32], ptr %31, i64 0, i64 %36
  store i32 %26, ptr %37, align 4
  %38 = load ptr, ptr %3, align 8
  %39 = load i32, ptr %4, align 4
  %40 = load i32, ptr %5, align 4
  %41 = call i32 @Zyx_TopoVar(ptr noundef %38, i32 noundef %39, i32 noundef %40)
  %42 = load i32, ptr %6, align 4
  %43 = call i32 @Abc_Var2Lit(i32 noundef %41, i32 noundef %42)
  %44 = load ptr, ptr %3, align 8
  %45 = getelementptr inbounds %struct.Zyx_Man_t_, ptr %44, i32 0, i32 15
  %46 = load i32, ptr %6, align 4
  %47 = sext i32 %46 to i64
  %48 = getelementptr inbounds [2 x [64 x i32]], ptr %45, i64 0, i64 %47
  %49 = load ptr, ptr %3, align 8
  %50 = getelementptr inbounds %struct.Zyx_Man_t_, ptr %49, i32 0, i32 16
  %51 = load i32, ptr %6, align 4
  %52 = sext i32 %51 to i64
  %53 = getelementptr inbounds [2 x i32], ptr %50, i64 0, i64 %52
  %54 = load i32, ptr %53, align 4
  %55 = add nsw i32 %54, 1
  store i32 %55, ptr %53, align 4
  %56 = sext i32 %54 to i64
  %57 = getelementptr inbounds [64 x i32], ptr %48, i64 0, i64 %56
  store i32 %43, ptr %57, align 4
  br label %58

58:                                               ; preds = %17
  %59 = load i32, ptr %5, align 4
  %60 = add nsw i32 %59, 1
  store i32 %60, ptr %5, align 4
  br label %13, !llvm.loop !76

61:                                               ; preds = %13
  %62 = load ptr, ptr %3, align 8
  %63 = getelementptr inbounds %struct.Zyx_Man_t_, ptr %62, i32 0, i32 16
  %64 = getelementptr inbounds [2 x i32], ptr %63, i64 0, i64 1
  %65 = load i32, ptr %64, align 4
  ret i32 %65
}

; Function Attrs: nounwind uwtable
define internal ptr @Vec_IntAlloc(i32 noundef %0) #0 {
  %2 = alloca i32, align 4
  %3 = alloca ptr, align 8
  store i32 %0, ptr %2, align 4
  %4 = call noalias ptr @malloc(i64 noundef 16) #12
  store ptr %4, ptr %3, align 8
  %5 = load i32, ptr %2, align 4
  %6 = icmp sgt i32 %5, 0
  br i1 %6, label %7, label %11

7:                                                ; preds = %1
  %8 = load i32, ptr %2, align 4
  %9 = icmp slt i32 %8, 16
  br i1 %9, label %10, label %11

10:                                               ; preds = %7
  store i32 16, ptr %2, align 4
  br label %11

11:                                               ; preds = %10, %7, %1
  %12 = load ptr, ptr %3, align 8
  %13 = getelementptr inbounds %struct.Vec_Int_t_, ptr %12, i32 0, i32 1
  store i32 0, ptr %13, align 4
  %14 = load i32, ptr %2, align 4
  %15 = load ptr, ptr %3, align 8
  %16 = getelementptr inbounds %struct.Vec_Int_t_, ptr %15, i32 0, i32 0
  store i32 %14, ptr %16, align 8
  %17 = load ptr, ptr %3, align 8
  %18 = getelementptr inbounds %struct.Vec_Int_t_, ptr %17, i32 0, i32 0
  %19 = load i32, ptr %18, align 8
  %20 = icmp ne i32 %19, 0
  br i1 %20, label %21, label %28

21:                                               ; preds = %11
  %22 = load ptr, ptr %3, align 8
  %23 = getelementptr inbounds %struct.Vec_Int_t_, ptr %22, i32 0, i32 0
  %24 = load i32, ptr %23, align 8
  %25 = sext i32 %24 to i64
  %26 = mul i64 4, %25
  %27 = call noalias ptr @malloc(i64 noundef %26) #12
  br label %29

28:                                               ; preds = %11
  br label %29

29:                                               ; preds = %28, %21
  %30 = phi ptr [ %27, %21 ], [ null, %28 ]
  %31 = load ptr, ptr %3, align 8
  %32 = getelementptr inbounds %struct.Vec_Int_t_, ptr %31, i32 0, i32 2
  store ptr %30, ptr %32, align 8
  %33 = load ptr, ptr %3, align 8
  ret ptr %33
}

; Function Attrs: nounwind uwtable
define i32 @Zyx_ManAddCnfBlockSolution(ptr noundef %0) #0 {
  %2 = alloca i32, align 4
  %3 = alloca ptr, align 8
  %4 = alloca ptr, align 8
  %5 = alloca i32, align 4
  %6 = alloca i32, align 4
  %7 = alloca i32, align 4
  store ptr %0, ptr %3, align 8
  %8 = call ptr @Vec_IntAlloc(i32 noundef 100)
  store ptr %8, ptr %4, align 8
  %9 = load ptr, ptr %3, align 8
  %10 = getelementptr inbounds %struct.Zyx_Man_t_, ptr %9, i32 0, i32 0
  %11 = load ptr, ptr %10, align 8
  %12 = getelementptr inbounds %struct.Bmc_EsPar_t_, ptr %11, i32 0, i32 0
  %13 = load i32, ptr %12, align 8
  store i32 %13, ptr %5, align 4
  br label %14

14:                                               ; preds = %51, %1
  %15 = load i32, ptr %5, align 4
  %16 = load ptr, ptr %3, align 8
  %17 = getelementptr inbounds %struct.Zyx_Man_t_, ptr %16, i32 0, i32 2
  %18 = load i32, ptr %17, align 8
  %19 = icmp slt i32 %15, %18
  br i1 %19, label %20, label %54

20:                                               ; preds = %14
  %21 = load ptr, ptr %3, align 8
  %22 = load i32, ptr %5, align 4
  %23 = call i32 @Zyx_ManCollectFanins(ptr noundef %21, i32 noundef %22)
  store i32 %23, ptr %7, align 4
  store i32 0, ptr %6, align 4
  br label %24

24:                                               ; preds = %47, %20
  %25 = load i32, ptr %6, align 4
  %26 = load ptr, ptr %3, align 8
  %27 = getelementptr inbounds %struct.Zyx_Man_t_, ptr %26, i32 0, i32 0
  %28 = load ptr, ptr %27, align 8
  %29 = getelementptr inbounds %struct.Bmc_EsPar_t_, ptr %28, i32 0, i32 2
  %30 = load i32, ptr %29, align 8
  %31 = icmp slt i32 %25, %30
  br i1 %31, label %32, label %50

32:                                               ; preds = %24
  %33 = load ptr, ptr %4, align 8
  %34 = load ptr, ptr %3, align 8
  %35 = load i32, ptr %5, align 4
  %36 = load ptr, ptr %3, align 8
  %37 = getelementptr inbounds %struct.Zyx_Man_t_, ptr %36, i32 0, i32 14
  %38 = load i32, ptr %5, align 4
  %39 = sext i32 %38 to i64
  %40 = getelementptr inbounds [32 x [32 x i32]], ptr %37, i64 0, i64 %39
  %41 = load i32, ptr %6, align 4
  %42 = sext i32 %41 to i64
  %43 = getelementptr inbounds [32 x i32], ptr %40, i64 0, i64 %42
  %44 = load i32, ptr %43, align 4
  %45 = call i32 @Zyx_TopoVar(ptr noundef %34, i32 noundef %35, i32 noundef %44)
  %46 = call i32 @Abc_Var2Lit(i32 noundef %45, i32 noundef 1)
  call void @Vec_IntPush(ptr noundef %33, i32 noundef %46)
  br label %47

47:                                               ; preds = %32
  %48 = load i32, ptr %6, align 4
  %49 = add nsw i32 %48, 1
  store i32 %49, ptr %6, align 4
  br label %24, !llvm.loop !87

50:                                               ; preds = %24
  br label %51

51:                                               ; preds = %50
  %52 = load i32, ptr %5, align 4
  %53 = add nsw i32 %52, 1
  store i32 %53, ptr %5, align 4
  br label %14, !llvm.loop !88

54:                                               ; preds = %14
  %55 = load ptr, ptr %3, align 8
  %56 = getelementptr inbounds %struct.Zyx_Man_t_, ptr %55, i32 0, i32 18
  %57 = load ptr, ptr %56, align 8
  %58 = load ptr, ptr %4, align 8
  %59 = call ptr @Vec_IntArray(ptr noundef %58)
  %60 = load ptr, ptr %4, align 8
  %61 = call i32 @Vec_IntSize(ptr noundef %60)
  %62 = call i32 @bmcg_sat_solver_addclause(ptr noundef %57, ptr noundef %59, i32 noundef %61)
  %63 = icmp ne i32 %62, 0
  br i1 %63, label %65, label %64

64:                                               ; preds = %54
  store i32 0, ptr %2, align 4
  br label %67

65:                                               ; preds = %54
  %66 = load ptr, ptr %4, align 8
  call void @Vec_IntFree(ptr noundef %66)
  store i32 1, ptr %2, align 4
  br label %67

67:                                               ; preds = %65, %64
  %68 = load i32, ptr %2, align 4
  ret i32 %68
}