; Function Attrs: nounwind uwtable
define range(i32 0, 2) i32 @Zyx_ManAddCnfBlockSolution(ptr noundef captures(none) %0) local_unnamed_addr #2 {
  %2 = tail call noalias dereferenceable_or_null(16) ptr @malloc(i64 noundef 16) #21
  %3 = getelementptr inbounds nuw i8, ptr %2, i64 4
  store i32 0, ptr %3, align 4
  store i32 100, ptr %2, align 8
  %4 = tail call noalias dereferenceable_or_null(400) ptr @malloc(i64 noundef 400) #21
  %5 = getelementptr inbounds nuw i8, ptr %2, i64 8
  store ptr %4, ptr %5, align 8
  %6 = load ptr, ptr %0, align 8
  %7 = load i32, ptr %6, align 8
  %8 = getelementptr inbounds nuw i8, ptr %0, i64 16
  %9 = load i32, ptr %8, align 8
  %10 = icmp slt i32 %7, %9
  br i1 %10, label %.lr.ph26, label %._crit_edge27

.lr.ph26:                                         ; preds = %1
  %11 = getelementptr inbounds nuw i8, ptr %0, i64 4704
  %12 = getelementptr inbounds nuw i8, ptr %0, i64 4708
  %13 = getelementptr inbounds nuw i8, ptr %0, i64 8808
  %14 = getelementptr inbounds nuw i8, ptr %0, i64 28
  %15 = getelementptr inbounds nuw i8, ptr %0, i64 96
  %16 = getelementptr inbounds nuw i8, ptr %0, i64 4192
  %17 = sext i32 %7 to i64
  br label %18

18:                                               ; preds = %.lr.ph26, %._crit_edge
  %19 = phi ptr [ %6, %.lr.ph26 ], [ %103, %._crit_edge ]
  %indvars.iv29 = phi i64 [ %17, %.lr.ph26 ], [ %indvars.iv.next30, %._crit_edge ]
  store i32 0, ptr %12, align 4
  store i32 0, ptr %11, align 8
  %20 = icmp sgt i64 %indvars.iv29, 0
  br i1 %20, label %.lr.ph.i, label %Zyx_ManCollectFanins.exit

.lr.ph.i:                                         ; preds = %18
  %21 = trunc nsw i64 %indvars.iv29 to i32
  br label %22

22:                                               ; preds = %22, %.lr.ph.i
  %.022.i = phi i32 [ 0, %.lr.ph.i ], [ %52, %22 ]
  %23 = load ptr, ptr %13, align 8
  %24 = load i32, ptr %14, align 4
  %25 = load i32, ptr %8, align 8
  %26 = load ptr, ptr %0, align 8
  %27 = load i32, ptr %26, align 8
  %28 = sub nsw i32 %21, %27
  %29 = mul nsw i32 %28, %25
  %30 = add i32 %24, %.022.i
  %31 = add i32 %30, %29
  %32 = tail call i32 @bmcg_sat_solver_read_cex_varvalue(ptr noundef %23, i32 noundef %31) #22
  %33 = load i32, ptr %12, align 4
  %34 = sext i32 %33 to i64
  %35 = getelementptr inbounds [32 x [32 x i32]], ptr %15, i64 0, i64 %indvars.iv29, i64 %34
  store i32 %.022.i, ptr %35, align 4
  %36 = load i32, ptr %14, align 4
  %37 = load i32, ptr %8, align 8
  %38 = load ptr, ptr %0, align 8
  %39 = load i32, ptr %38, align 8
  %40 = sub nsw i32 %21, %39
  %41 = mul nsw i32 %40, %37
  %42 = add i32 %36, %.022.i
  %43 = add i32 %42, %41
  %44 = shl nsw i32 %43, 1
  %45 = add nsw i32 %44, %32
  %46 = sext i32 %32 to i64
  %47 = getelementptr inbounds [2 x i32], ptr %11, i64 0, i64 %46
  %48 = load i32, ptr %47, align 4
  %49 = add nsw i32 %48, 1
  store i32 %49, ptr %47, align 4
  %50 = sext i32 %48 to i64
  %51 = getelementptr inbounds [2 x [64 x i32]], ptr %16, i64 0, i64 %46, i64 %50
  store i32 %45, ptr %51, align 4
  %52 = add nuw nsw i32 %.022.i, 1
  %exitcond.not.i = icmp eq i32 %52, %21
  br i1 %exitcond.not.i, label %Zyx_ManCollectFanins.exit.loopexit, label %22, !llvm.loop !75

Zyx_ManCollectFanins.exit.loopexit:               ; preds = %22
  %.pre = load ptr, ptr %0, align 8
  br label %Zyx_ManCollectFanins.exit

Zyx_ManCollectFanins.exit:                        ; preds = %Zyx_ManCollectFanins.exit.loopexit, %18
  %53 = phi ptr [ %.pre, %Zyx_ManCollectFanins.exit.loopexit ], [ %19, %18 ]
  %54 = getelementptr inbounds nuw i8, ptr %53, i64 8
  %55 = load i32, ptr %54, align 8
  %56 = icmp sgt i32 %55, 0
  br i1 %56, label %.lr.ph, label %._crit_edge

.lr.ph:                                           ; preds = %Zyx_ManCollectFanins.exit
  %57 = trunc nsw i64 %indvars.iv29 to i32
  br label %58

58:                                               ; preds = %.lr.ph, %Vec_IntPush.exit
  %indvars.iv = phi i64 [ 0, %.lr.ph ], [ %indvars.iv.next, %Vec_IntPush.exit ]
  %59 = phi ptr [ %53, %.lr.ph ], [ %98, %Vec_IntPush.exit ]
  %60 = getelementptr inbounds [32 x [32 x i32]], ptr %15, i64 0, i64 %indvars.iv29, i64 %indvars.iv
  %61 = load i32, ptr %60, align 4
  %62 = load i32, ptr %14, align 4
  %63 = load i32, ptr %8, align 8
  %64 = load i32, ptr %59, align 8
  %65 = sub nsw i32 %57, %64
  %66 = mul nsw i32 %65, %63
  %67 = add i32 %62, %61
  %68 = add i32 %67, %66
  %69 = shl nsw i32 %68, 1
  %70 = or disjoint i32 %69, 1
  %71 = load i32, ptr %3, align 4
  %72 = load i32, ptr %2, align 8
  %73 = icmp eq i32 %71, %72
  br i1 %73, label %74, label %.Vec_IntGrow.exit10_crit_edge.i

.Vec_IntGrow.exit10_crit_edge.i:                  ; preds = %58
  %.pre.i22 = load ptr, ptr %5, align 8
  br label %Vec_IntPush.exit

74:                                               ; preds = %58
  %75 = icmp slt i32 %71, 16
  br i1 %75, label %76, label %83

76:                                               ; preds = %74
  %77 = load ptr, ptr %5, align 8
  %.not9.i.i = icmp eq ptr %77, null
  br i1 %.not9.i.i, label %80, label %78

78:                                               ; preds = %76
  %79 = tail call dereferenceable_or_null(64) ptr @realloc(ptr noundef nonnull %77, i64 noundef 64) #24
  br label %Vec_IntGrow.exit.i

80:                                               ; preds = %76
  %81 = tail call noalias dereferenceable_or_null(64) ptr @malloc(i64 noundef 64) #21
  br label %Vec_IntGrow.exit.i

Vec_IntGrow.exit.i:                               ; preds = %80, %78
  %82 = phi ptr [ %79, %78 ], [ %81, %80 ]
  store ptr %82, ptr %5, align 8
  store i32 16, ptr %2, align 8
  br label %Vec_IntPush.exit

83:                                               ; preds = %74
  %84 = shl nuw nsw i32 %71, 1
  %85 = load ptr, ptr %5, align 8
  %.not9.i9.i = icmp eq ptr %85, null
  %86 = zext nneg i32 %84 to i64
  %87 = shl nuw nsw i64 %86, 2
  br i1 %.not9.i9.i, label %90, label %88

88:                                               ; preds = %83
  %89 = tail call ptr @realloc(ptr noundef nonnull %85, i64 noundef %87) #24
  br label %92

90:                                               ; preds = %83
  %91 = tail call noalias ptr @malloc(i64 noundef %87) #21
  br label %92

92:                                               ; preds = %90, %88
  %93 = phi ptr [ %89, %88 ], [ %91, %90 ]
  store ptr %93, ptr %5, align 8
  store i32 %84, ptr %2, align 8
  br label %Vec_IntPush.exit

Vec_IntPush.exit:                                 ; preds = %.Vec_IntGrow.exit10_crit_edge.i, %Vec_IntGrow.exit.i, %92
  %94 = phi ptr [ %.pre.i22, %.Vec_IntGrow.exit10_crit_edge.i ], [ %93, %92 ], [ %82, %Vec_IntGrow.exit.i ]
  %95 = add nsw i32 %71, 1
  store i32 %95, ptr %3, align 4
  %96 = sext i32 %71 to i64
  %97 = getelementptr inbounds i32, ptr %94, i64 %96
  store i32 %70, ptr %97, align 4
  %indvars.iv.next = add nuw nsw i64 %indvars.iv, 1
  %98 = load ptr, ptr %0, align 8
  %99 = getelementptr inbounds nuw i8, ptr %98, i64 8
  %100 = load i32, ptr %99, align 8
  %101 = sext i32 %100 to i64
  %102 = icmp slt i64 %indvars.iv.next, %101
  br i1 %102, label %58, label %._crit_edge, !llvm.loop !86

._crit_edge:                                      ; preds = %Vec_IntPush.exit, %Zyx_ManCollectFanins.exit
  %103 = phi ptr [ %53, %Zyx_ManCollectFanins.exit ], [ %98, %Vec_IntPush.exit ]
  %indvars.iv.next30 = add nsw i64 %indvars.iv29, 1
  %104 = load i32, ptr %8, align 8
  %105 = sext i32 %104 to i64
  %106 = icmp slt i64 %indvars.iv.next30, %105
  br i1 %106, label %18, label %._crit_edge27.loopexit, !llvm.loop !87

._crit_edge27.loopexit:                           ; preds = %._crit_edge
  %.val21.pre = load ptr, ptr %5, align 8
  %.val.pre = load i32, ptr %3, align 4
  br label %._crit_edge27

._crit_edge27:                                    ; preds = %._crit_edge27.loopexit, %1
  %.val = phi i32 [ %.val.pre, %._crit_edge27.loopexit ], [ 0, %1 ]
  %.val21 = phi ptr [ %.val21.pre, %._crit_edge27.loopexit ], [ %4, %1 ]
  %107 = getelementptr inbounds nuw i8, ptr %0, i64 8808
  %108 = load ptr, ptr %107, align 8
  %109 = tail call i32 @bmcg_sat_solver_addclause(ptr noundef %108, ptr noundef %.val21, i32 noundef %.val) #22
  %.not = icmp eq i32 %109, 0
  br i1 %.not, label %112, label %110

110:                                              ; preds = %._crit_edge27
  %.not.i = icmp eq ptr %.val21, null
  br i1 %.not.i, label %Vec_IntFree.exit, label %111

111:                                              ; preds = %110
  tail call void @free(ptr noundef nonnull %.val21) #22
  br label %Vec_IntFree.exit

Vec_IntFree.exit:                                 ; preds = %110, %111
  tail call void @free(ptr noundef nonnull %2) #22
  br label %112

112:                                              ; preds = %._crit_edge27, %Vec_IntFree.exit
  %.0 = phi i32 [ 1, %Vec_IntFree.exit ], [ 0, %._crit_edge27 ]
  ret i32 %.0
}